; Function Attrs: nounwind uwtable
define hidden i32 @drsuapi_dissect_struct_DsReplicaModRequest1(ptr noundef %0, i32 noundef %1, ptr noundef %2, ptr noundef %3, ptr noundef %4, ptr noundef %5, i32 noundef %6, i32 %7) local_unnamed_addr #0 {
  %9 = getelementptr inbounds nuw i8, ptr %4, i64 72
  %10 = load ptr, ptr %9, align 8
  %11 = getelementptr inbounds nuw i8, ptr %10, i64 96
  %12 = load i32, ptr %11, align 8
  %13 = and i32 %12, 1
  %.not = icmp eq i32 %13, 0
  %14 = getelementptr inbounds nuw i8, ptr %4, i64 28
  %15 = load i32, ptr %14, align 4
  %.not70 = icmp ne i32 %15, 0
  br i1 %.not, label %21, label %16

16:                                               ; preds = %8
  %17 = and i32 %1, 7
  %.not73 = icmp eq i32 %17, 0
  %or.cond = or i1 %.not73, %.not70
  br i1 %or.cond, label %26, label %18

18:                                               ; preds = %16
  %19 = and i32 %1, -8
  %20 = add i32 %19, 8
  br label %26

21:                                               ; preds = %8
  %22 = and i32 %1, 3
  %.not71 = icmp eq i32 %22, 0
  %or.cond78 = or i1 %.not71, %.not70
  br i1 %or.cond78, label %26, label %23

23:                                               ; preds = %21
  %24 = and i32 %1, -4
  %25 = add i32 %24, 4
  br label %26

26:                                               ; preds = %21, %23, %16, %18
  %.0 = phi i32 [ %1, %16 ], [ %20, %18 ], [ %1, %21 ], [ %25, %23 ]
  %.not74 = icmp eq ptr %3, null
  br i1 %.not74, label %31, label %27

27:                                               ; preds = %26
  %28 = tail call ptr @proto_tree_add_item(ptr noundef nonnull %3, i32 noundef %6, ptr noundef %0, i32 noundef %.0, i32 noundef -1, i32 noundef 0) #5
  %29 = load i32, ptr @ett_drsuapi_drsuapi_DsReplicaModRequest1, align 4
  %30 = tail call ptr @proto_item_add_subtree(ptr noundef %28, i32 noundef %29) #5
  br label %31

31:                                               ; preds = %27, %26
  %.068 = phi ptr [ %28, %27 ], [ null, %26 ]
  %.067 = phi ptr [ %30, %27 ], [ null, %26 ]
  %32 = load i32, ptr @hf_drsuapi_drsuapi_DsReplicaModRequest1_naming_context, align 4
  %33 = tail call i32 @dissect_ndr_embedded_pointer(ptr noundef %0, i32 noundef %.0, ptr noundef %2, ptr noundef %.067, ptr noundef nonnull %4, ptr noundef %5, ptr noundef nonnull @drsuapi_dissect_element_DsReplicaModRequest1_naming_context_, i32 noundef 1, ptr noundef nonnull @.str.1432, i32 noundef %32) #5
  %34 = load i32, ptr @hf_drsuapi_drsuapi_DsReplicaModRequest1_source_dra, align 4
  %35 = tail call i32 @dissect_ndr_uuid_t(ptr noundef %0, i32 noundef %33, ptr noundef %2, ptr noundef %.067, ptr noundef nonnull %4, ptr noundef %5, i32 noundef %34, ptr noundef null) #5
  %36 = load i32, ptr @hf_drsuapi_drsuapi_DsReplicaModRequest1_source_dra_address, align 4
  %37 = tail call i32 @dissect_ndr_embedded_pointer(ptr noundef %0, i32 noundef %35, ptr noundef %2, ptr noundef %.067, ptr noundef nonnull %4, ptr noundef %5, ptr noundef nonnull @drsuapi_dissect_element_DsReplicaModRequest1_source_dra_address_, i32 noundef 2, ptr noundef nonnull @.str.1459, i32 noundef %36) #5
  br label %38

38:                                               ; preds = %38, %31
  %.010.i = phi i32 [ 0, %31 ], [ %41, %38 ]
  %.089.i = phi i32 [ %37, %31 ], [ %40, %38 ]
  %39 = load i32, ptr @hf_drsuapi_drsuapi_DsReplicaModRequest1_schedule, align 4
  %40 = tail call i32 @PIDL_dissect_uint8(ptr noundef %0, i32 noundef %.089.i, ptr noundef %2, ptr noundef %.067, ptr noundef nonnull %4, ptr noundef %5, i32 noundef %39, i32 noundef 0) #5
  %41 = add nuw nsw i32 %.010.i, 1
  %exitcond.not.i = icmp eq i32 %41, 84
  br i1 %exitcond.not.i, label %drsuapi_dissect_element_DsReplicaModRequest1_schedule.exit, label %38, !llvm.loop !7

drsuapi_dissect_element_DsReplicaModRequest1_schedule.exit: ; preds = %38
  %42 = load i32, ptr @hf_drsuapi_drsuapi_DsReplicaModRequest1_replica_flags, align 4
  %43 = tail call i32 @drsuapi_dissect_bitmap_DrsOptions(ptr noundef %0, i32 noundef %40, ptr noundef %2, ptr noundef %.067, ptr noundef nonnull %4, ptr noundef %5, i32 noundef %42, i32 poison)
  %44 = load i32, ptr @hf_drsuapi_drsuapi_DsReplicaModRequest1_modify_fields, align 4
  %45 = tail call i32 @PIDL_dissect_uint32(ptr noundef %0, i32 noundef %43, ptr noundef %2, ptr noundef %.067, ptr noundef nonnull %4, ptr noundef %5, i32 noundef %44, i32 noundef 0) #5
  %46 = load i32, ptr @hf_drsuapi_drsuapi_DsReplicaModRequest1_options, align 4
  %47 = tail call i32 @drsuapi_dissect_bitmap_DrsOptions(ptr noundef %0, i32 noundef %45, ptr noundef %2, ptr noundef %.067, ptr noundef nonnull %4, ptr noundef %5, i32 noundef %46, i32 poison)
  %48 = sub i32 %47, %.0
  tail call void @proto_item_set_len(ptr noundef %.068, i32 noundef %48) #5
  %49 = load ptr, ptr %9, align 8
  %50 = getelementptr inbounds nuw i8, ptr %49, i64 96
  %51 = load i32, ptr %50, align 8
  %52 = and i32 %51, 1
  %.not75 = icmp eq i32 %52, 0
  br i1 %.not75, label %60, label %53

53:                                               ; preds = %drsuapi_dissect_element_DsReplicaModRequest1_schedule.exit
  %54 = getelementptr inbounds nuw i8, ptr %4, i64 28
  %55 = load i32, ptr %54, align 4
  %.not76 = icmp ne i32 %55, 0
  %56 = and i32 %47, 7
  %.not77 = icmp eq i32 %56, 0
  %or.cond79 = or i1 %.not77, %.not76
  br i1 %or.cond79, label %60, label %57

57:                                               ; preds = %53
  %58 = and i32 %47, -8
  %59 = add i32 %58, 8
  br label %60

60:                                               ; preds = %57, %53, %drsuapi_dissect_element_DsReplicaModRequest1_schedule.exit
  %.1 = phi i32 [ %47, %53 ], [ %59, %57 ], [ %47, %drsuapi_dissect_element_DsReplicaModRequest1_schedule.exit ]
  ret i32 %.1
}